; Function Attrs: mustprogress uwtable
define hidden noundef ptr @_ZNK19OpenColorIO_v2_4dev18SystemMonitorsImpl14getMonitorNameEm(ptr nocapture noundef nonnull readonly align 8 dereferenceable(32) %this, i64 noundef %index) unnamed_addr #5 align 2 personality ptr @__gxx_personality_v0 {
entry:
  %oss = alloca %"class.std::__cxx11::basic_ostringstream", align 8
  %ref.tmp = alloca %"class.std::__cxx11::basic_string", align 8
  %m_monitors = getelementptr inbounds i8, ptr %this, i64 8
  %_M_finish.i = getelementptr inbounds i8, ptr %this, i64 16
  %0 = load ptr, ptr %_M_finish.i, align 8
  %1 = load ptr, ptr %m_monitors, align 8
  %sub.ptr.lhs.cast.i = ptrtoint ptr %0 to i64
  %sub.ptr.rhs.cast.i = ptrtoint ptr %1 to i64
  %sub.ptr.sub.i = sub i64 %sub.ptr.lhs.cast.i, %sub.ptr.rhs.cast.i
  %sub.ptr.div.i = ashr exact i64 %sub.ptr.sub.i, 6
  %cmp.not = icmp ugt i64 %sub.ptr.div.i, %index
  br i1 %cmp.not, label %if.end, label %if.then

if.then:                                          ; preds = %entry
  call void @_ZNSt7__cxx1119basic_ostringstreamIcSt11char_traitsIcESaIcEEC1Ev(ptr noundef nonnull align 8 dereferenceable(112) %oss)
  %call2 = invoke noundef nonnull align 8 dereferenceable(8) ptr @_ZStlsISt11char_traitsIcEERSt13basic_ostreamIcT_ES5_PKc(ptr noundef nonnull align 8 dereferenceable(8) %oss, ptr noundef nonnull @.str)
          to label %invoke.cont unwind label %lpad

invoke.cont:                                      ; preds = %if.then
  %call4 = invoke noundef nonnull align 8 dereferenceable(8) ptr @_ZNSolsEm(ptr noundef nonnull align 8 dereferenceable(8) %call2, i64 noundef %index)
          to label %invoke.cont3 unwind label %lpad

invoke.cont3:                                     ; preds = %invoke.cont
  %call6 = invoke noundef nonnull align 8 dereferenceable(8) ptr @_ZStlsISt11char_traitsIcEERSt13basic_ostreamIcT_ES5_PKc(ptr noundef nonnull align 8 dereferenceable(8) %call4, ptr noundef nonnull @.str.1)
          to label %invoke.cont5 unwind label %lpad

invoke.cont5:                                     ; preds = %invoke.cont3
  %2 = load ptr, ptr %_M_finish.i, align 8
  %3 = load ptr, ptr %m_monitors, align 8
  %sub.ptr.lhs.cast.i6 = ptrtoint ptr %2 to i64
  %sub.ptr.rhs.cast.i7 = ptrtoint ptr %3 to i64
  %sub.ptr.sub.i8 = sub i64 %sub.ptr.lhs.cast.i6, %sub.ptr.rhs.cast.i7
  %sub.ptr.div.i9 = ashr exact i64 %sub.ptr.sub.i8, 6
  %call10 = invoke noundef nonnull align 8 dereferenceable(8) ptr @_ZNSolsEm(ptr noundef nonnull align 8 dereferenceable(8) %call6, i64 noundef %sub.ptr.div.i9)
          to label %invoke.cont9 unwind label %lpad

invoke.cont9:                                     ; preds = %invoke.cont5
  %call12 = invoke noundef nonnull align 8 dereferenceable(8) ptr @_ZStlsISt11char_traitsIcEERSt13basic_ostreamIcT_ES5_PKc(ptr noundef nonnull align 8 dereferenceable(8) %call10, ptr noundef nonnull @.str.2)
          to label %invoke.cont11 unwind label %lpad

invoke.cont11:                                    ; preds = %invoke.cont9
  %exception = call ptr @__cxa_allocate_exception(i64 16) #14
  invoke void @_ZNKSt7__cxx1119basic_ostringstreamIcSt11char_traitsIcESaIcEE3strEv(ptr nonnull sret(%"class.std::__cxx11::basic_string") align 8 %ref.tmp, ptr noundef nonnull align 8 dereferenceable(112) %oss)
          to label %invoke.cont14 unwind label %ehcleanup.thread

invoke.cont14:                                    ; preds = %invoke.cont11
  %call15 = call noundef ptr @_ZNKSt7__cxx1112basic_stringIcSt11char_traitsIcESaIcEE5c_strEv(ptr noundef nonnull align 8 dereferenceable(32) %ref.tmp) #14
  invoke void @_ZN19OpenColorIO_v2_4dev9ExceptionC1EPKc(ptr noundef nonnull align 8 dereferenceable(16) %exception, ptr noundef %call15)
          to label %invoke.cont17 unwind label %ehcleanup.thread13

ehcleanup.thread13:                               ; preds = %invoke.cont14
  %4 = landingpad { ptr, i32 }
          cleanup
  call void @_ZNSt7__cxx1112basic_stringIcSt11char_traitsIcESaIcEED1Ev(ptr noundef nonnull align 8 dereferenceable(32) %ref.tmp) #14
  br label %cleanup.action

invoke.cont17:                                    ; preds = %invoke.cont14
  invoke void @__cxa_throw(ptr nonnull %exception, ptr nonnull @_ZTIN19OpenColorIO_v2_4dev9ExceptionE, ptr nonnull @_ZN19OpenColorIO_v2_4dev9ExceptionD1Ev) #15
          to label %unreachable unwind label %ehcleanup

lpad:                                             ; preds = %invoke.cont9, %invoke.cont5, %invoke.cont3, %invoke.cont, %if.then
  %5 = landingpad { ptr, i32 }
          cleanup
  br label %ehcleanup18

ehcleanup.thread:                                 ; preds = %invoke.cont11
  %6 = landingpad { ptr, i32 }
          cleanup
  br label %cleanup.action

ehcleanup:                                        ; preds = %invoke.cont17
  %7 = landingpad { ptr, i32 }
          cleanup
  call void @_ZNSt7__cxx1112basic_stringIcSt11char_traitsIcESaIcEED1Ev(ptr noundef nonnull align 8 dereferenceable(32) %ref.tmp) #14
  br label %ehcleanup18

cleanup.action:                                   ; preds = %ehcleanup.thread13, %ehcleanup.thread
  %.pn12 = phi { ptr, i32 } [ %6, %ehcleanup.thread ], [ %4, %ehcleanup.thread13 ]
  call void @__cxa_free_exception(ptr %exception) #14
  br label %ehcleanup18

ehcleanup18:                                      ; preds = %ehcleanup, %cleanup.action, %lpad
  %.pn.pn = phi { ptr, i32 } [ %.pn12, %cleanup.action ], [ %7, %ehcleanup ], [ %5, %lpad ]
  call void @_ZNSt7__cxx1119basic_ostringstreamIcSt11char_traitsIcESaIcEED1Ev(ptr noundef nonnull align 8 dereferenceable(112) %oss) #14
  resume { ptr, i32 } %.pn.pn

if.end:                                           ; preds = %entry
  %add.ptr.i = getelementptr inbounds %"struct.OpenColorIO_v2_4dev::SystemMonitorsImpl::MonitorInfo", ptr %1, i64 %index
  %call21 = tail call noundef ptr @_ZNKSt7__cxx1112basic_stringIcSt11char_traitsIcESaIcEE5c_strEv(ptr noundef nonnull align 8 dereferenceable(32) %add.ptr.i) #14
  ret ptr %call21

unreachable:                                      ; preds = %invoke.cont17
  unreachable
}